target datalayout = "e-m:e-p270:32:32-p271:32:32-p272:64:64-i64:64-i128:128-f80:128-n8:16:32:64-S128"
target triple = "x86_64-unknown-linux-gnu"

%"struct.icu_75::FormattedStringBuilder::Field" = type { i8 }
%"class.icu_75::MeasureUnit" = type <{ %"class.icu_75::UObject", ptr, i16, i8, [5 x i8] }>
%"class.icu_75::UObject" = type { ptr }
%"class.icu_75::number::FormattedNumber" = type <{ %"class.icu_75::FormattedValue", ptr, i32, [4 x i8] }>
%"class.icu_75::FormattedValue" = type { ptr }
%"class.icu_75::number::impl::UFormattedNumberData" = type { %"class.icu_75::FormattedValueStringBuilderImpl.base", [4 x i8], %"class.icu_75::number::impl::DecimalQuantity", %"class.icu_75::MeasureUnit", ptr }
%"class.icu_75::FormattedValueStringBuilderImpl.base" = type <{ %"class.icu_75::FormattedValue", %"class.icu_75::FormattedStringBuilder", %"struct.icu_75::FormattedStringBuilder::Field", [7 x i8], %"class.icu_75::MaybeStackArray.41", i32 }>
%"class.icu_75::FormattedStringBuilder" = type { i8, %"union.icu_75::FormattedStringBuilder::ValueOrHeapArray", %"union.icu_75::FormattedStringBuilder::ValueOrHeapArray.39", i32, i32 }
%"union.icu_75::FormattedStringBuilder::ValueOrHeapArray" = type { %struct.anon.38, [64 x i8] }
%struct.anon.38 = type { ptr, i32 }
%"union.icu_75::FormattedStringBuilder::ValueOrHeapArray.39" = type { %struct.anon.40, [24 x i8] }
%struct.anon.40 = type { ptr, i32 }
%"class.icu_75::MaybeStackArray.41" = type { ptr, i32, i8, [8 x %"struct.icu_75::SpanInfo"] }
%"struct.icu_75::SpanInfo" = type { i32, i32, i32, i32 }
%"class.icu_75::number::impl::DecimalQuantity" = type <{ %"class.icu_75::IFixedDecimal", i8, [3 x i8], i32, i32, i8, i8, [2 x i8], double, i32, i32, i32, i32, %union.anon.42, i8, i8, [6 x i8] }>
%"class.icu_75::IFixedDecimal" = type { ptr }
%union.anon.42 = type { %struct.anon.43 }
%struct.anon.43 = type { ptr, i32 }

@_ZTVN6icu_756number15FormattedNumberE = external unnamed_addr constant { [8 x ptr] }, align 8
@_ZTVN6icu_7514FormattedValueE = external unnamed_addr constant { [8 x ptr] }, align 8
@_ZN6icu_75L15kUndefinedFieldE = internal constant %"struct.icu_75::FormattedStringBuilder::Field" zeroinitializer, align 1
@_ZTVN6icu_756number4impl20UFormattedNumberDataE = external unnamed_addr constant { [8 x ptr] }, align 8
@.str = private unnamed_addr constant [1 x i8] zeroinitializer, align 1

; Function Attrs: mustprogress nounwind uwtable
define linkonce_odr void @_ZN6icu_7514FormattedValueC2Ev(ptr noundef nonnull align 8 dereferenceable(8) %this) unnamed_addr #0 comdat align 2 {
entry:
  %this.addr = alloca ptr, align 8
  store ptr %this, ptr %this.addr, align 8
  %this1 = load ptr, ptr %this.addr, align 8
  store ptr getelementptr inbounds ({ [8 x ptr] }, ptr @_ZTVN6icu_7514FormattedValueE, i32 0, i32 0, i32 2), ptr %this1, align 8
  ret void
}

; Function Attrs: mustprogress nounwind uwtable
define linkonce_odr void @_ZN6icu_756number15FormattedNumberC2EPNS0_4impl20UFormattedNumberDataE(ptr noundef nonnull align 8 dereferenceable(20) %this, ptr noundef %results) unnamed_addr #0 comdat align 2 {
entry:
  %this.addr = alloca ptr, align 8
  %results.addr = alloca ptr, align 8
  store ptr %this, ptr %this.addr, align 8
  store ptr %results, ptr %results.addr, align 8
  %this1 = load ptr, ptr %this.addr, align 8
  call void @_ZN6icu_7514FormattedValueC2Ev(ptr noundef nonnull align 8 dereferenceable(8) %this1) #10
  store ptr getelementptr inbounds ({ [8 x ptr] }, ptr @_ZTVN6icu_756number15FormattedNumberE, i32 0, i32 0, i32 2), ptr %this1, align 8
  %fData = getelementptr inbounds %"class.icu_75::number::FormattedNumber", ptr %this1, i32 0, i32 1
  %0 = load ptr, ptr %results.addr, align 8
  store ptr %0, ptr %fData, align 8
  %fErrorCode = getelementptr inbounds %"class.icu_75::number::FormattedNumber", ptr %this1, i32 0, i32 2
  store i32 0, ptr %fErrorCode, align 8
  ret void
}

; Function Attrs: mustprogress nounwind uwtable
define internal noundef signext i8 @_ZL9U_SUCCESS10UErrorCode(i32 noundef %code) #0 {
entry:
  %code.addr = alloca i32, align 4
  store i32 %code, ptr %code.addr, align 4
  %0 = load i32, ptr %code.addr, align 4
  %cmp = icmp sle i32 %0, 0
  %conv = zext i1 %cmp to i8
  ret i8 %conv
}

; Function Attrs: mustprogress uwtable
define linkonce_odr void @_ZN6icu_756number4impl20UFormattedNumberDataC2Ev(ptr noundef nonnull align 8 dereferenceable(408) %this) unnamed_addr #1 comdat align 2 personality ptr @__gxx_personality_v0 {
entry:
  %this.addr = alloca ptr, align 8
  %agg.tmp = alloca %"struct.icu_75::FormattedStringBuilder::Field", align 1
  %exn.slot = alloca ptr, align 8
  %ehselector.slot = alloca i32, align 4
  store ptr %this, ptr %this.addr, align 8
  %this1 = load ptr, ptr %this.addr, align 8
  call void @llvm.memcpy.p0.p0.i64(ptr align 1 %agg.tmp, ptr align 1 @_ZN6icu_75L15kUndefinedFieldE, i64 1, i1 false)
  %coerce.dive = getelementptr inbounds %"struct.icu_75::FormattedStringBuilder::Field", ptr %agg.tmp, i32 0, i32 0
  %0 = load i8, ptr %coerce.dive, align 1
  call void @_ZN6icu_7531FormattedValueStringBuilderImplC2ENS_22FormattedStringBuilder5FieldE(ptr noundef nonnull align 8 dereferenceable(300) %this1, i8 %0)
  store ptr getelementptr inbounds ({ [8 x ptr] }, ptr @_ZTVN6icu_756number4impl20UFormattedNumberDataE, i32 0, i32 0, i32 2), ptr %this1, align 8
  %quantity = getelementptr inbounds %"class.icu_75::number::impl::UFormattedNumberData", ptr %this1, i32 0, i32 2
  invoke void @_ZN6icu_756number4impl15DecimalQuantityC1Ev(ptr noundef nonnull align 8 dereferenceable(66) %quantity)
          to label %invoke.cont unwind label %lpad

invoke.cont:                                      ; preds = %entry
  %outputUnit = getelementptr inbounds %"class.icu_75::number::impl::UFormattedNumberData", ptr %this1, i32 0, i32 3
  invoke void @_ZN6icu_7511MeasureUnitC1Ev(ptr noundef nonnull align 8 dereferenceable(19) %outputUnit)
          to label %invoke.cont3 unwind label %lpad2

invoke.cont3:                                     ; preds = %invoke.cont
  %gender = getelementptr inbounds %"class.icu_75::number::impl::UFormattedNumberData", ptr %this1, i32 0, i32 4
  store ptr @.str, ptr %gender, align 8
  ret void

lpad:                                             ; preds = %entry
  %1 = landingpad { ptr, i32 }
          cleanup
  %2 = extractvalue { ptr, i32 } %1, 0
  store ptr %2, ptr %exn.slot, align 8
  %3 = extractvalue { ptr, i32 } %1, 1
  store i32 %3, ptr %ehselector.slot, align 4
  br label %ehcleanup

lpad2:                                            ; preds = %invoke.cont
  %4 = landingpad { ptr, i32 }
          cleanup
  %5 = extractvalue { ptr, i32 } %4, 0
  store ptr %5, ptr %exn.slot, align 8
  %6 = extractvalue { ptr, i32 } %4, 1
  store i32 %6, ptr %ehselector.slot, align 4
  call void @_ZN6icu_756number4impl15DecimalQuantityD1Ev(ptr noundef nonnull align 8 dereferenceable(66) %quantity) #10
  br label %ehcleanup

ehcleanup:                                        ; preds = %lpad2, %lpad
  call void @_ZN6icu_7531FormattedValueStringBuilderImplD2Ev(ptr noundef nonnull align 8 dereferenceable(300) %this1) #10
  br label %eh.resume

eh.resume:                                        ; preds = %ehcleanup
  %exn = load ptr, ptr %exn.slot, align 8
  %sel = load i32, ptr %ehselector.slot, align 4
  %lpad.val = insertvalue { ptr, i32 } poison, ptr %exn, 0
  %lpad.val4 = insertvalue { ptr, i32 } %lpad.val, i32 %sel, 1
  resume { ptr, i32 } %lpad.val4
}

; Function Attrs: mustprogress nounwind uwtable
define linkonce_odr void @_ZN6icu_756number15FormattedNumberC2E10UErrorCode(ptr noundef nonnull align 8 dereferenceable(20) %this, i32 noundef %errorCode) unnamed_addr #0 comdat align 2 {
entry:
  %this.addr = alloca ptr, align 8
  %errorCode.addr = alloca i32, align 4
  store ptr %this, ptr %this.addr, align 8
  store i32 %errorCode, ptr %errorCode.addr, align 4
  %this1 = load ptr, ptr %this.addr, align 8
  call void @_ZN6icu_7514FormattedValueC2Ev(ptr noundef nonnull align 8 dereferenceable(8) %this1) #10
  store ptr getelementptr inbounds ({ [8 x ptr] }, ptr @_ZTVN6icu_756number15FormattedNumberE, i32 0, i32 0, i32 2), ptr %this1, align 8
  %fData = getelementptr inbounds %"class.icu_75::number::FormattedNumber", ptr %this1, i32 0, i32 1
  store ptr null, ptr %fData, align 8
  %fErrorCode = getelementptr inbounds %"class.icu_75::number::FormattedNumber", ptr %this1, i32 0, i32 2
  %0 = load i32, ptr %errorCode.addr, align 4
  store i32 %0, ptr %fErrorCode, align 8
  ret void
}

; Function Attrs: mustprogress nounwind uwtable
define internal noundef signext i8 @_ZL9U_FAILURE10UErrorCode(i32 noundef %code) #0 {
entry:
  %code.addr = alloca i32, align 4
  store i32 %code, ptr %code.addr, align 4
  %0 = load i32, ptr %code.addr, align 4
  %cmp = icmp sgt i32 %0, 0
  %conv = zext i1 %cmp to i8
  ret i8 %conv
}

; Function Attrs: mustprogress uwtable
define void @_ZNK6icu_756number24LocalizedNumberFormatter12formatDoubleEdR10UErrorCode(ptr noalias sret(%"class.icu_75::number::FormattedNumber") align 8 %agg.result, ptr noundef nonnull align 8 dereferenceable(496) %this, double noundef %value, ptr noundef nonnull align 4 dereferenceable(4) %status) #1 align 2 personality ptr @__gxx_personality_v0 {
entry:
  %result.ptr = alloca ptr, align 8
  %this.addr = alloca ptr, align 8
  %value.addr = alloca double, align 8
  %status.addr = alloca ptr, align 8
  %results = alloca ptr, align 8
  %saved-rvalue = alloca ptr, align 8
  %cleanup.cond = alloca i1, align 1
  %exn.slot = alloca ptr, align 8
  %ehselector.slot = alloca i32, align 4
  store ptr %agg.result, ptr %result.ptr, align 8
  store ptr %this, ptr %this.addr, align 8
  store double %value, ptr %value.addr, align 8
  store ptr %status, ptr %status.addr, align 8
  %this1 = load ptr, ptr %this.addr, align 8
  %0 = load ptr, ptr %status.addr, align 8
  %1 = load i32, ptr %0, align 4
  %call = call noundef signext i8 @_ZL9U_FAILURE10UErrorCode(i32 noundef %1)
  %tobool = icmp ne i8 %call, 0
  br i1 %tobool, label %if.then, label %if.end

if.then:                                          ; preds = %entry
  call void @_ZN6icu_756number15FormattedNumberC2E10UErrorCode(ptr noundef nonnull align 8 dereferenceable(20) %agg.result, i32 noundef 1)
  br label %return

if.end:                                           ; preds = %entry
  %call2 = call noundef ptr @_ZN6icu_757UMemorynwEm(i64 noundef 408) #10
  %new.isnull = icmp eq ptr %call2, null
  store i1 false, ptr %cleanup.cond, align 1
  br i1 %new.isnull, label %new.cont, label %new.notnull

new.notnull:                                      ; preds = %if.end
  store ptr %call2, ptr %saved-rvalue, align 8
  store i1 true, ptr %cleanup.cond, align 1
  invoke void @_ZN6icu_756number4impl20UFormattedNumberDataC2Ev(ptr noundef nonnull align 8 dereferenceable(408) %call2)
          to label %invoke.cont unwind label %lpad

invoke.cont:                                      ; preds = %new.notnull
  br label %new.cont

new.cont:                                         ; preds = %invoke.cont, %if.end
  %2 = phi ptr [ %call2, %invoke.cont ], [ null, %if.end ]
  store ptr %2, ptr %results, align 8
  %3 = load ptr, ptr %results, align 8
  %cmp = icmp eq ptr %3, null
  br i1 %cmp, label %if.then3, label %if.end4

if.then3:                                         ; preds = %new.cont
  %4 = load ptr, ptr %status.addr, align 8
  store i32 7, ptr %4, align 4
  %5 = load ptr, ptr %status.addr, align 8
  %6 = load i32, ptr %5, align 4
  call void @_ZN6icu_756number15FormattedNumberC2E10UErrorCode(ptr noundef nonnull align 8 dereferenceable(20) %agg.result, i32 noundef %6)
  br label %return

lpad:                                             ; preds = %new.notnull
  %7 = landingpad { ptr, i32 }
          cleanup
  %8 = extractvalue { ptr, i32 } %7, 0
  store ptr %8, ptr %exn.slot, align 8
  %9 = extractvalue { ptr, i32 } %7, 1
  store i32 %9, ptr %ehselector.slot, align 4
  %cleanup.is_active = load i1, ptr %cleanup.cond, align 1
  br i1 %cleanup.is_active, label %cleanup.action, label %cleanup.done

cleanup.action:                                   ; preds = %lpad
  %10 = load ptr, ptr %saved-rvalue, align 8
  call void @_ZN6icu_757UMemorydlEPv(ptr noundef %10) #10
  br label %cleanup.done

cleanup.done:                                     ; preds = %cleanup.action, %lpad
  br label %eh.resume

if.end4:                                          ; preds = %new.cont
  %11 = load ptr, ptr %results, align 8
  %quantity = getelementptr inbounds %"class.icu_75::number::impl::UFormattedNumberData", ptr %11, i32 0, i32 2
  %12 = load double, ptr %value.addr, align 8
  %call5 = call noundef nonnull align 8 dereferenceable(66) ptr @_ZN6icu_756number4impl15DecimalQuantity11setToDoubleEd(ptr noundef nonnull align 8 dereferenceable(66) %quantity, double noundef %12)
  %13 = load ptr, ptr %results, align 8
  %14 = load ptr, ptr %status.addr, align 8
  call void @_ZNK6icu_756number24LocalizedNumberFormatter10formatImplEPNS0_4impl20UFormattedNumberDataER10UErrorCode(ptr noundef nonnull align 8 dereferenceable(496) %this1, ptr noundef %13, ptr noundef nonnull align 4 dereferenceable(4) %14)
  %15 = load ptr, ptr %status.addr, align 8
  %16 = load i32, ptr %15, align 4
  %call6 = call noundef signext i8 @_ZL9U_SUCCESS10UErrorCode(i32 noundef %16)
  %tobool7 = icmp ne i8 %call6, 0
  br i1 %tobool7, label %if.then8, label %if.else

if.then8:                                         ; preds = %if.end4
  %17 = load ptr, ptr %results, align 8
  call void @_ZN6icu_756number15FormattedNumberC2EPNS0_4impl20UFormattedNumberDataE(ptr noundef nonnull align 8 dereferenceable(20) %agg.result, ptr noundef %17)
  br label %return

if.else:                                          ; preds = %if.end4
  %18 = load ptr, ptr %results, align 8
  %isnull = icmp eq ptr %18, null
  br i1 %isnull, label %delete.end, label %delete.notnull

delete.notnull:                                   ; preds = %if.else
  %vtable = load ptr, ptr %18, align 8
  %vfn = getelementptr inbounds ptr, ptr %vtable, i64 1
  %19 = load ptr, ptr %vfn, align 8
  call void %19(ptr noundef nonnull align 8 dereferenceable(408) %18) #10
  br label %delete.end

delete.end:                                       ; preds = %delete.notnull, %if.else
  %20 = load ptr, ptr %status.addr, align 8
  %21 = load i32, ptr %20, align 4
  call void @_ZN6icu_756number15FormattedNumberC2E10UErrorCode(ptr noundef nonnull align 8 dereferenceable(20) %agg.result, i32 noundef %21)
  br label %return

return:                                           ; preds = %delete.end, %if.then8, %if.then3, %if.then
  ret void

eh.resume:                                        ; preds = %cleanup.done
  %exn = load ptr, ptr %exn.slot, align 8
  %sel = load i32, ptr %ehselector.slot, align 4
  %lpad.val = insertvalue { ptr, i32 } poison, ptr %exn, 0
  %lpad.val9 = insertvalue { ptr, i32 } %lpad.val, i32 %sel, 1
  resume { ptr, i32 } %lpad.val9
}