; Function Attrs: mustprogress uwtable
define void @_ZNK6icu_756number24LocalizedNumberFormatter12formatDoubleEdR10UErrorCode(ptr noalias nocapture writeonly sret(%"class.icu_75::number::FormattedNumber") align 8 %agg.result, ptr noundef nonnull align 8 dereferenceable(496) %this, double noundef %value, ptr noundef nonnull align 4 dereferenceable(4) %status) local_unnamed_addr #1 align 2 personality ptr @__gxx_personality_v0 {
entry:
  %0 = load i32, ptr %status, align 4
  %cmp.i = icmp slt i32 %0, 1
  br i1 %cmp.i, label %if.end, label %return

if.end:                                           ; preds = %entry
  %call2 = tail call noundef ptr @_ZN6icu_757UMemorynwEm(i64 noundef 408) #14
  %new.isnull = icmp eq ptr %call2, null
  br i1 %new.isnull, label %if.then3, label %new.notnull

new.notnull:                                      ; preds = %if.end
  invoke void @_ZN6icu_7531FormattedValueStringBuilderImplC2ENS_22FormattedStringBuilder5FieldE(ptr noundef nonnull align 8 dereferenceable(300) %call2, i8 0)
          to label %.noexc unwind label %lpad

.noexc:                                           ; preds = %new.notnull
  store ptr getelementptr inbounds ({ [8 x ptr] }, ptr @_ZTVN6icu_756number4impl20UFormattedNumberDataE, i64 0, i32 0, i64 2), ptr %call2, align 8
  %quantity.i = getelementptr inbounds i8, ptr %call2, i64 304
  invoke void @_ZN6icu_756number4impl15DecimalQuantityC1Ev(ptr noundef nonnull align 8 dereferenceable(66) %quantity.i)
          to label %invoke.cont.i unwind label %lpad.i

invoke.cont.i:                                    ; preds = %.noexc
  %outputUnit.i = getelementptr inbounds i8, ptr %call2, i64 376
  invoke void @_ZN6icu_7511MeasureUnitC1Ev(ptr noundef nonnull align 8 dereferenceable(19) %outputUnit.i)
          to label %if.end4 unwind label %lpad2.i

lpad.i:                                           ; preds = %.noexc
  %1 = landingpad { ptr, i32 }
          cleanup
  br label %ehcleanup.i

lpad2.i:                                          ; preds = %invoke.cont.i
  %2 = landingpad { ptr, i32 }
          cleanup
  tail call void @_ZN6icu_756number4impl15DecimalQuantityD1Ev(ptr noundef nonnull align 8 dereferenceable(66) %quantity.i) #14
  br label %ehcleanup.i

ehcleanup.i:                                      ; preds = %lpad2.i, %lpad.i
  %.pn.i = phi { ptr, i32 } [ %2, %lpad2.i ], [ %1, %lpad.i ]
  tail call void @_ZN6icu_7531FormattedValueStringBuilderImplD2Ev(ptr noundef nonnull align 8 dereferenceable(300) %call2) #14
  br label %lpad.body

if.then3:                                         ; preds = %if.end
  store i32 7, ptr %status, align 4
  br label %return

lpad:                                             ; preds = %new.notnull
  %3 = landingpad { ptr, i32 }
          cleanup
  br label %lpad.body

lpad.body:                                        ; preds = %ehcleanup.i, %lpad
  %eh.lpad-body = phi { ptr, i32 } [ %3, %lpad ], [ %.pn.i, %ehcleanup.i ]
  tail call void @_ZN6icu_757UMemorydlEPv(ptr noundef nonnull %call2) #14
  resume { ptr, i32 } %eh.lpad-body

if.end4:                                          ; preds = %invoke.cont.i
  %gender.i = getelementptr inbounds i8, ptr %call2, i64 400
  store ptr @.str, ptr %gender.i, align 8
  %call5 = tail call noundef nonnull align 8 dereferenceable(66) ptr @_ZN6icu_756number4impl15DecimalQuantity11setToDoubleEd(ptr noundef nonnull align 8 dereferenceable(66) %quantity.i, double noundef %value)
  tail call void @_ZNK6icu_756number24LocalizedNumberFormatter10formatImplEPNS0_4impl20UFormattedNumberDataER10UErrorCode(ptr noundef nonnull align 8 dereferenceable(496) %this, ptr noundef nonnull %call2, ptr noundef nonnull align 4 dereferenceable(4) %status)
  %4 = load i32, ptr %status, align 4
  %cmp.i12 = icmp sgt i32 %4, 0
  br i1 %cmp.i12, label %delete.notnull, label %return

delete.notnull:                                   ; preds = %if.end4
  %vtable = load ptr, ptr %call2, align 8
  %vfn = getelementptr inbounds i8, ptr %vtable, i64 8
  %5 = load ptr, ptr %vfn, align 8
  tail call void %5(ptr noundef nonnull align 8 dereferenceable(408) %call2) #14
  %6 = load i32, ptr %status, align 4
  br label %return

return:                                           ; preds = %if.end4, %entry, %delete.notnull, %if.then3
  %.sink19 = phi ptr [ null, %delete.notnull ], [ null, %if.then3 ], [ null, %entry ], [ %call2, %if.end4 ]
  %.sink = phi i32 [ %6, %delete.notnull ], [ 7, %if.then3 ], [ 1, %entry ], [ 0, %if.end4 ]
  store ptr getelementptr inbounds ({ [8 x ptr] }, ptr @_ZTVN6icu_756number15FormattedNumberE, i64 0, i32 0, i64 2), ptr %agg.result, align 8
  %fData.i16 = getelementptr inbounds i8, ptr %agg.result, i64 8
  store ptr %.sink19, ptr %fData.i16, align 8
  %fErrorCode.i17 = getelementptr inbounds i8, ptr %agg.result, i64 16
  store i32 %.sink, ptr %fErrorCode.i17, align 8
  ret void
}